; ModuleID = '56/2260.c'
source_filename = "56/2260.c"
target datalayout = "e-m:e-p270:32:32-p271:32:32-p272:64:64-i64:64-f80:128-n8:16:32:64-S128"
target triple = "x86_64-pc-linux-gnu"

@.str = private unnamed_addr constant [3 x i8] c"%d\00", align 1

; Function Attrs: noinline nounwind uwtable
define dso_local i32 @main() #0 {
  %1 = alloca i32, align 4
  %2 = alloca [6 x i32], align 16
  %3 = alloca i32, align 4
  %4 = alloca i32, align 4
  %5 = alloca i32, align 4
  %6 = alloca i32, align 4
  %7 = alloca i32, align 4
  store i32 0, i32* %1, align 4
  %8 = call i32 (i8*, ...) @__isoc99_scanf(i8* getelementptr inbounds ([3 x i8], [3 x i8]* @.str, i64 0, i64 0), i32* %3)
  %9 = load i32, i32* %3, align 4
  %10 = sdiv i32 %9, 10000
  %11 = getelementptr inbounds [6 x i32], [6 x i32]* %2, i64 0, i64 5
  store i32 %10, i32* %11, align 4
  %12 = load i32, i32* %3, align 4
  %13 = getelementptr inbounds [6 x i32], [6 x i32]* %2, i64 0, i64 5
  %14 = load i32, i32* %13, align 4
  %15 = mul nsw i32 %14, 10000
  %16 = sub nsw i32 %12, %15
  %17 = sdiv i32 %16, 1000
  %18 = getelementptr inbounds [6 x i32], [6 x i32]* %2, i64 0, i64 4
  store i32 %17, i32* %18, align 16
  %19 = load i32, i32* %3, align 4
  %20 = getelementptr inbounds [6 x i32], [6 x i32]* %2, i64 0, i64 5
  %21 = load i32, i32* %20, align 4
  %22 = mul nsw i32 %21, 10000
  %23 = sub nsw i32 %19, %22
  %24 = getelementptr inbounds [6 x i32], [6 x i32]* %2, i64 0, i64 4
  %25 = load i32, i32* %24, align 16
  %26 = mul nsw i32 %25, 1000
  %27 = sub nsw i32 %23, %26
  %28 = sdiv i32 %27, 100
  %29 = getelementptr inbounds [6 x i32], [6 x i32]* %2, i64 0, i64 3
  store i32 %28, i32* %29, align 4
  %30 = load i32, i32* %3, align 4
  %31 = getelementptr inbounds [6 x i32], [6 x i32]* %2, i64 0, i64 5
  %32 = load i32, i32* %31, align 4
  %33 = mul nsw i32 %32, 10000
  %34 = sub nsw i32 %30, %33
  %35 = getelementptr inbounds [6 x i32], [6 x i32]* %2, i64 0, i64 4
  %36 = load i32, i32* %35, align 16
  %37 = mul nsw i32 %36, 1000
  %38 = sub nsw i32 %34, %37
  %39 = getelementptr inbounds [6 x i32], [6 x i32]* %2, i64 0, i64 3
  %40 = load i32, i32* %39, align 4
  %41 = mul nsw i32 %40, 100
  %42 = sub nsw i32 %38, %41
  %43 = sdiv i32 %42, 10
  %44 = getelementptr inbounds [6 x i32], [6 x i32]* %2, i64 0, i64 2
  store i32 %43, i32* %44, align 8
  %45 = load i32, i32* %3, align 4
  %46 = getelementptr inbounds [6 x i32], [6 x i32]* %2, i64 0, i64 5
  %47 = load i32, i32* %46, align 4
  %48 = mul nsw i32 %47, 10000
  %49 = sub nsw i32 %45, %48
  %50 = getelementptr inbounds [6 x i32], [6 x i32]* %2, i64 0, i64 4
  %51 = load i32, i32* %50, align 16
  %52 = mul nsw i32 %51, 1000
  %53 = sub nsw i32 %49, %52
  %54 = getelementptr inbounds [6 x i32], [6 x i32]* %2, i64 0, i64 3
  %55 = load i32, i32* %54, align 4
  %56 = mul nsw i32 %55, 100
  %57 = sub nsw i32 %53, %56
  %58 = getelementptr inbounds [6 x i32], [6 x i32]* %2, i64 0, i64 2
  %59 = load i32, i32* %58, align 8
  %60 = mul nsw i32 %59, 10
  %61 = sub nsw i32 %57, %60
  %62 = sdiv i32 %61, 1
  %63 = getelementptr inbounds [6 x i32], [6 x i32]* %2, i64 0, i64 1
  store i32 %62, i32* %63, align 4
  store i32 0, i32* %5, align 4
  store i32 1, i32* %4, align 4
  br label %64

64:                                               ; preds = %77, %0
  %65 = load i32, i32* %4, align 4
  %66 = icmp sle i32 %65, 5
  br i1 %66, label %67, label %80

67:                                               ; preds = %64
  %68 = load i32, i32* %4, align 4
  %69 = sext i32 %68 to i64
  %70 = getelementptr inbounds [6 x i32], [6 x i32]* %2, i64 0, i64 %69
  %71 = load i32, i32* %70, align 4
  %72 = icmp ne i32 %71, 0
  br i1 %72, label %73, label %76

73:                                               ; preds = %67
  %74 = load i32, i32* %5, align 4
  %75 = add nsw i32 %74, 1
  store i32 %75, i32* %5, align 4
  br label %76

76:                                               ; preds = %73, %67
  br label %77

77:                                               ; preds = %76
  %78 = load i32, i32* %4, align 4
  %79 = add nsw i32 %78, 1
  store i32 %79, i32* %4, align 4
  br label %64

80:                                               ; preds = %64
  store i32 1, i32* %4, align 4
  br label %81

81:                                               ; preds = %109, %80
  %82 = load i32, i32* %4, align 4
  %83 = load i32, i32* %5, align 4
  %84 = add nsw i32 %83, 1
  %85 = sdiv i32 %84, 2
  %86 = icmp sle i32 %82, %85
  br i1 %86, label %87, label %112

87:                                               ; preds = %81
  %88 = load i32, i32* %4, align 4
  %89 = sext i32 %88 to i64
  %90 = getelementptr inbounds [6 x i32], [6 x i32]* %2, i64 0, i64 %89
  %91 = load i32, i32* %90, align 4
  store i32 %91, i32* %6, align 4
  %92 = load i32, i32* %5, align 4
  %93 = load i32, i32* %4, align 4
  %94 = sub nsw i32 %92, %93
  %95 = add nsw i32 %94, 1
  %96 = sext i32 %95 to i64
  %97 = getelementptr inbounds [6 x i32], [6 x i32]* %2, i64 0, i64 %96
  %98 = load i32, i32* %97, align 4
  %99 = load i32, i32* %4, align 4
  %100 = sext i32 %99 to i64
  %101 = getelementptr inbounds [6 x i32], [6 x i32]* %2, i64 0, i64 %100
  store i32 %98, i32* %101, align 4
  %102 = load i32, i32* %6, align 4
  %103 = load i32, i32* %5, align 4
  %104 = load i32, i32* %4, align 4
  %105 = sub nsw i32 %103, %104
  %106 = add nsw i32 %105, 1
  %107 = sext i32 %106 to i64
  %108 = getelementptr inbounds [6 x i32], [6 x i32]* %2, i64 0, i64 %107
  store i32 %102, i32* %108, align 4
  br label %109

109:                                              ; preds = %87
  %110 = load i32, i32* %4, align 4
  %111 = add nsw i32 %110, 1
  store i32 %111, i32* %4, align 4
  br label %81

112:                                              ; preds = %81
  %113 = load i32, i32* %5, align 4
  store i32 %113, i32* %7, align 4
  br label %114

114:                                              ; preds = %123, %112
  %115 = load i32, i32* %7, align 4
  %116 = icmp sge i32 %115, 1
  br i1 %116, label %117, label %126

117:                                              ; preds = %114
  %118 = load i32, i32* %7, align 4
  %119 = sext i32 %118 to i64
  %120 = getelementptr inbounds [6 x i32], [6 x i32]* %2, i64 0, i64 %119
  %121 = load i32, i32* %120, align 4
  %122 = call i32 (i8*, ...) @printf(i8* getelementptr inbounds ([3 x i8], [3 x i8]* @.str, i64 0, i64 0), i32 %121)
  br label %123

123:                                              ; preds = %117
  %124 = load i32, i32* %7, align 4
  %125 = add nsw i32 %124, -1
  store i32 %125, i32* %7, align 4
  br label %114

126:                                              ; preds = %114
  ret i32 0
}

declare dso_local i32 @__isoc99_scanf(i8*, ...) #1

declare dso_local i32 @printf(i8*, ...) #1


!llvm.module.flags = !{!0}
!llvm.ident = !{!1}

!0 = !{i32 1, !"wchar_size", i32 4}
!1 = !{!"clang version 10.0.0-4ubuntu1 "}
